;--------------------------------------------------------
; File Created by SDCC : free open source ANSI-C Compiler
; Version 3.6.0 #9615 (MINGW64)
;--------------------------------------------------------
	.module main
	.optsdcc -mmcs51 --model-small
	
;--------------------------------------------------------
; Public variables in this module
;--------------------------------------------------------
	.globl _play_sound_PARM_2
	.globl _melody_inocent_treasures
	.globl _main
	.globl _play_melody
	.globl _play_sound
	.globl _delay_ms
	.globl _timer2_isr
	.globl _CCF0
	.globl _CCF1
	.globl _CCF2
	.globl _CR
	.globl _CF
	.globl _RI
	.globl _TI
	.globl _RB8
	.globl _TB8
	.globl _REN
	.globl _SM2
	.globl _SM1
	.globl _SM0
	.globl _IT0
	.globl _IE0
	.globl _IT1
	.globl _IE1
	.globl _TR0
	.globl _TF0
	.globl _TR1
	.globl _TF1
	.globl _PX0
	.globl _PT0
	.globl _PX1
	.globl _PT1
	.globl _PS
	.globl _PADC
	.globl _PLVD
	.globl _PPCA
	.globl _EX0
	.globl _ET0
	.globl _EX1
	.globl _ET1
	.globl _ES
	.globl _EADC
	.globl _ELVD
	.globl _EA
	.globl _P77
	.globl _P76
	.globl _P75
	.globl _P74
	.globl _P73
	.globl _P72
	.globl _P71
	.globl _P70
	.globl _P67
	.globl _P66
	.globl _P65
	.globl _P64
	.globl _P63
	.globl _P62
	.globl _P61
	.globl _P60
	.globl _P57
	.globl _P56
	.globl _P55
	.globl _P54
	.globl _P53
	.globl _P52
	.globl _P51
	.globl _P50
	.globl _P47
	.globl _P46
	.globl _P45
	.globl _P44
	.globl _P43
	.globl _P42
	.globl _P41
	.globl _P40
	.globl _P37
	.globl _P36
	.globl _P35
	.globl _P34
	.globl _P33
	.globl _P32
	.globl _P31
	.globl _P30
	.globl _P27
	.globl _P26
	.globl _P25
	.globl _P24
	.globl _P23
	.globl _P22
	.globl _P21
	.globl _P20
	.globl _P17
	.globl _P16
	.globl _P15
	.globl _P14
	.globl _P13
	.globl _P12
	.globl _P11
	.globl _P10
	.globl _P07
	.globl _P06
	.globl _P05
	.globl _P04
	.globl _P03
	.globl _P02
	.globl _P01
	.globl _P00
	.globl _P
	.globl _OV
	.globl _RS0
	.globl _RS1
	.globl _F0
	.globl _AC
	.globl _CY
	.globl _PWMFDCR
	.globl _PWMIF
	.globl _PWMCR
	.globl _PWMCFG
	.globl _CMPCR2
	.globl _CMPCR1
	.globl _CCAP2H
	.globl _CCAP1H
	.globl _CCAP0H
	.globl _PCA_PWM2
	.globl _PCA_PWM1
	.globl _PCA_PWM0
	.globl _CCAP2L
	.globl _CCAP1L
	.globl _CCAP0L
	.globl _CCAPM2
	.globl _CCAPM1
	.globl _CCAPM0
	.globl _CH
	.globl _CL
	.globl _CMOD
	.globl _CCON
	.globl _IAP_CONTR
	.globl _IAP_TRIG
	.globl _IAP_CMD
	.globl _IAP_ADDRL
	.globl _IAP_ADDRH
	.globl _IAP_DATA
	.globl _SPDAT
	.globl _SPCTL
	.globl _SPSTAT
	.globl _ADC_RESL
	.globl _ADC_RES
	.globl _ADC_CONTR
	.globl _SADEN
	.globl _SADDR
	.globl _S4BUF
	.globl _S4CON
	.globl _S3BUF
	.globl _S3CON
	.globl _S2BUF
	.globl _S2CON
	.globl _SBUF
	.globl _SCON
	.globl _WDT_CONTR
	.globl _WKTCH
	.globl _WKTCL
	.globl _T2L
	.globl _T2H
	.globl _T3L
	.globl _T3H
	.globl _T4L
	.globl _T4H
	.globl _T3T4M
	.globl _T4T3M
	.globl _TH1
	.globl _TH0
	.globl _TL1
	.globl _TL0
	.globl _TMOD
	.globl _TCON
	.globl _INT_CLKO
	.globl _IP2
	.globl _IE2
	.globl _IP
	.globl _IE
	.globl _P_SW2
	.globl _P1ASF
	.globl _BUS_SPEED
	.globl _CLK_DIV
	.globl _P_SW1
	.globl _AUXR1
	.globl _AUXR
	.globl _PCON
	.globl _P7M1
	.globl _P7M0
	.globl _P6M1
	.globl _P6M0
	.globl _P5M1
	.globl _P5M0
	.globl _P4M1
	.globl _P4M0
	.globl _P3M1
	.globl _P3M0
	.globl _P2M1
	.globl _P2M0
	.globl _P1M1
	.globl _P1M0
	.globl _P0M1
	.globl _P0M0
	.globl _P7
	.globl _P6
	.globl _P5
	.globl _P4
	.globl _P3
	.globl _P2
	.globl _P1
	.globl _P0
	.globl _DPH
	.globl _DPL
	.globl _SP
	.globl _PSW
	.globl _B
	.globl _ACC
	.globl _play_melody_PARM_2
	.globl _need_timing
	.globl _duration_ms_isr
	.globl _ms_cnt
;--------------------------------------------------------
; special function registers
;--------------------------------------------------------
	.area RSEG    (ABS,DATA)
	.org 0x0000
_ACC	=	0x00e0
_B	=	0x00f0
_PSW	=	0x00d0
_SP	=	0x0081
_DPL	=	0x0082
_DPH	=	0x0083
_P0	=	0x0080
_P1	=	0x0090
_P2	=	0x00a0
_P3	=	0x00b0
_P4	=	0x00c0
_P5	=	0x00c8
_P6	=	0x00e8
_P7	=	0x00f8
_P0M0	=	0x0094
_P0M1	=	0x0093
_P1M0	=	0x0092
_P1M1	=	0x0091
_P2M0	=	0x0096
_P2M1	=	0x0095
_P3M0	=	0x00b2
_P3M1	=	0x00b1
_P4M0	=	0x00b4
_P4M1	=	0x00b3
_P5M0	=	0x00ca
_P5M1	=	0x00c9
_P6M0	=	0x00cc
_P6M1	=	0x00cb
_P7M0	=	0x00e2
_P7M1	=	0x00e1
_PCON	=	0x0087
_AUXR	=	0x008e
_AUXR1	=	0x00a2
_P_SW1	=	0x00a2
_CLK_DIV	=	0x0097
_BUS_SPEED	=	0x00a1
_P1ASF	=	0x009d
_P_SW2	=	0x00ba
_IE	=	0x00a8
_IP	=	0x00b8
_IE2	=	0x00af
_IP2	=	0x00b5
_INT_CLKO	=	0x008f
_TCON	=	0x0088
_TMOD	=	0x0089
_TL0	=	0x008a
_TL1	=	0x008b
_TH0	=	0x008c
_TH1	=	0x008d
_T4T3M	=	0x00d1
_T3T4M	=	0x00d1
_T4H	=	0x00d2
_T4L	=	0x00d3
_T3H	=	0x00d4
_T3L	=	0x00d5
_T2H	=	0x00d6
_T2L	=	0x00d7
_WKTCL	=	0x00aa
_WKTCH	=	0x00ab
_WDT_CONTR	=	0x00c1
_SCON	=	0x0098
_SBUF	=	0x0099
_S2CON	=	0x009a
_S2BUF	=	0x009b
_S3CON	=	0x00ac
_S3BUF	=	0x00ad
_S4CON	=	0x0084
_S4BUF	=	0x0085
_SADDR	=	0x00a9
_SADEN	=	0x00b9
_ADC_CONTR	=	0x00bc
_ADC_RES	=	0x00bd
_ADC_RESL	=	0x00be
_SPSTAT::
	.ds 1
_SPCTL::
	.ds 1
_SPDAT::
	.ds 1
_IAP_DATA	=	0x00c2
_IAP_ADDRH	=	0x00c3
_IAP_ADDRL	=	0x00c4
_IAP_CMD	=	0x00c5
_IAP_TRIG	=	0x00c6
_IAP_CONTR	=	0x00c7
_CCON	=	0x00d8
_CMOD	=	0x00d9
_CL	=	0x00e9
_CH	=	0x00f9
_CCAPM0	=	0x00da
_CCAPM1	=	0x00db
_CCAPM2	=	0x00dc
_CCAP0L	=	0x00ea
_CCAP1L	=	0x00eb
_CCAP2L	=	0x00ec
_PCA_PWM0	=	0x00f2
_PCA_PWM1	=	0x00f3
_PCA_PWM2	=	0x00f4
_CCAP0H	=	0x00fa
_CCAP1H	=	0x00fb
_CCAP2H	=	0x00fc
_CMPCR1	=	0x00e6
_CMPCR2	=	0x00e7
_PWMCFG	=	0x00f1
_PWMCR	=	0x00f5
_PWMIF	=	0x00f6
_PWMFDCR	=	0x00f7
;--------------------------------------------------------
; special function bits
;--------------------------------------------------------
	.area RSEG    (ABS,DATA)
	.org 0x0000
_CY	=	0x00d7
_AC	=	0x00d6
_F0	=	0x00d5
_RS1	=	0x00d4
_RS0	=	0x00d3
_OV	=	0x00d2
_P	=	0x00d0
_P00	=	0x0080
_P01	=	0x0081
_P02	=	0x0082
_P03	=	0x0083
_P04	=	0x0084
_P05	=	0x0085
_P06	=	0x0086
_P07	=	0x0087
_P10	=	0x0090
_P11	=	0x0091
_P12	=	0x0092
_P13	=	0x0093
_P14	=	0x0094
_P15	=	0x0095
_P16	=	0x0096
_P17	=	0x0097
_P20	=	0x00a0
_P21	=	0x00a1
_P22	=	0x00a2
_P23	=	0x00a3
_P24	=	0x00a4
_P25	=	0x00a5
_P26	=	0x00a6
_P27	=	0x00a7
_P30	=	0x00b0
_P31	=	0x00b1
_P32	=	0x00b2
_P33	=	0x00b3
_P34	=	0x00b4
_P35	=	0x00b5
_P36	=	0x00b6
_P37	=	0x00b7
_P40	=	0x00c0
_P41	=	0x00c1
_P42	=	0x00c2
_P43	=	0x00c3
_P44	=	0x00c4
_P45	=	0x00c5
_P46	=	0x00c6
_P47	=	0x00c7
_P50	=	0x00c8
_P51	=	0x00c9
_P52	=	0x00ca
_P53	=	0x00cb
_P54	=	0x00cc
_P55	=	0x00cd
_P56	=	0x00ce
_P57	=	0x00cf
_P60	=	0x00e8
_P61	=	0x00e9
_P62	=	0x00ea
_P63	=	0x00eb
_P64	=	0x00ec
_P65	=	0x00ed
_P66	=	0x00ee
_P67	=	0x00ef
_P70	=	0x00f8
_P71	=	0x00f9
_P72	=	0x00fa
_P73	=	0x00fb
_P74	=	0x00fc
_P75	=	0x00fd
_P76	=	0x00fe
_P77	=	0x00ff
_EA	=	0x00af
_ELVD	=	0x00ae
_EADC	=	0x00ad
_ES	=	0x00ac
_ET1	=	0x00ab
_EX1	=	0x00aa
_ET0	=	0x00a9
_EX0	=	0x00a8
_PPCA	=	0x008f
_PLVD	=	0x008e
_PADC	=	0x008d
_PS	=	0x008c
_PT1	=	0x008b
_PX1	=	0x008a
_PT0	=	0x0089
_PX0	=	0x0088
_TF1	=	0x008f
_TR1	=	0x008e
_TF0	=	0x008d
_TR0	=	0x008c
_IE1	=	0x008b
_IT1	=	0x008a
_IE0	=	0x0089
_IT0	=	0x0088
_SM0	=	0x009f
_SM1	=	0x009e
_SM2	=	0x009d
_REN	=	0x009c
_TB8	=	0x009b
_RB8	=	0x009a
_TI	=	0x0099
_RI	=	0x0098
_CF	=	0x00df
_CR	=	0x00de
_CCF2	=	0x00da
_CCF1	=	0x00d9
_CCF0	=	0x00d8
;--------------------------------------------------------
; overlayable register banks
;--------------------------------------------------------
	.area REG_BANK_0	(REL,OVR,DATA)
	.ds 8
;--------------------------------------------------------
; internal ram data
;--------------------------------------------------------
	.area DSEG    (DATA)
_ms_cnt::
	.ds 2
_duration_ms_isr::
	.ds 2
_need_timing::
	.ds 1
_play_melody_PARM_2:
	.ds 2
_play_melody_melody_1_11:
	.ds 3
_play_melody_sloc0_1_0:
	.ds 2
;--------------------------------------------------------
; overlayable items in internal ram 
;--------------------------------------------------------
	.area	OSEG    (OVR,DATA)
	.area	OSEG    (OVR,DATA)
_play_sound_PARM_2:
	.ds 2
;--------------------------------------------------------
; Stack segment in internal ram 
;--------------------------------------------------------
	.area	SSEG
__start__stack:
	.ds	1

;--------------------------------------------------------
; indirectly addressable internal ram data
;--------------------------------------------------------
	.area ISEG    (DATA)
;--------------------------------------------------------
; absolute internal ram data
;--------------------------------------------------------
	.area IABS    (ABS,DATA)
	.area IABS    (ABS,DATA)
;--------------------------------------------------------
; bit data
;--------------------------------------------------------
	.area BSEG    (BIT)
_play_sound_sloc0_1_0:
	.ds 1
;--------------------------------------------------------
; paged external ram data
;--------------------------------------------------------
	.area PSEG    (PAG,XDATA)
;--------------------------------------------------------
; external ram data
;--------------------------------------------------------
	.area XSEG    (XDATA)
;--------------------------------------------------------
; absolute external ram data
;--------------------------------------------------------
	.area XABS    (ABS,XDATA)
;--------------------------------------------------------
; external initialized ram data
;--------------------------------------------------------
	.area XISEG   (XDATA)
	.area HOME    (CODE)
	.area GSINIT0 (CODE)
	.area GSINIT1 (CODE)
	.area GSINIT2 (CODE)
	.area GSINIT3 (CODE)
	.area GSINIT4 (CODE)
	.area GSINIT5 (CODE)
	.area GSINIT  (CODE)
	.area GSFINAL (CODE)
	.area CSEG    (CODE)
;--------------------------------------------------------
; interrupt vector 
;--------------------------------------------------------
	.area HOME    (CODE)
__interrupt_vect:
	ljmp	__sdcc_gsinit_startup
	reti
	.ds	7
	reti
	.ds	7
	reti
	.ds	7
	reti
	.ds	7
	reti
	.ds	7
	reti
	.ds	7
	reti
	.ds	7
	reti
	.ds	7
	reti
	.ds	7
	reti
	.ds	7
	reti
	.ds	7
	reti
	.ds	7
	ljmp	_timer2_isr
;--------------------------------------------------------
; global & static initialisations
;--------------------------------------------------------
	.area HOME    (CODE)
	.area GSINIT  (CODE)
	.area GSFINAL (CODE)
	.area GSINIT  (CODE)
	.globl __sdcc_gsinit_startup
	.globl __sdcc_program_startup
	.globl __start__stack
	.globl __mcs51_genXINIT
	.globl __mcs51_genXRAMCLEAR
	.globl __mcs51_genRAMCLEAR
;	main.c:240: volatile uint ms_cnt = 0;
	clr	a
	mov	_ms_cnt,a
	mov	(_ms_cnt + 1),a
;	STC15.H:204: __sfr SPSTAT      =   0xCD;   //00xx,xxxx SPI×´Ì¬¼Ä´æÆ÷
	mov	_SPSTAT,#0xcd
;	STC15.H:205: __sfr SPCTL       =   0xCE;   //0000,0100 SPI¿ØÖÆ¼Ä´æÆ÷
	mov	_SPCTL,#0xce
;	STC15.H:206: __sfr SPDAT       =   0xCF;   //0000,0000 SPIÊý¾Ý¼Ä´æÆ÷
	mov	_SPDAT,#0xcf
	.area GSFINAL (CODE)
	ljmp	__sdcc_program_startup
;--------------------------------------------------------
; Home
;--------------------------------------------------------
	.area HOME    (CODE)
	.area HOME    (CODE)
__sdcc_program_startup:
	ljmp	_main
;	return from main will return to caller
;--------------------------------------------------------
; code
;--------------------------------------------------------
	.area CSEG    (CODE)
;------------------------------------------------------------
;Allocation info for local variables in function 'timer2_isr'
;------------------------------------------------------------
;	main.c:248: void timer2_isr() __interrupt 12 {
;	-----------------------------------------
;	 function timer2_isr
;	-----------------------------------------
_timer2_isr:
	ar7 = 0x07
	ar6 = 0x06
	ar5 = 0x05
	ar4 = 0x04
	ar3 = 0x03
	ar2 = 0x02
	ar1 = 0x01
	ar0 = 0x00
	push	acc
	push	psw
;	main.c:249: if (need_timing == 1) {
	mov	a,#0x01
	cjne	a,_need_timing,00105$
;	main.c:250: ms_cnt++;
	mov	a,#0x01
	add	a,_ms_cnt
	mov	_ms_cnt,a
	clr	a
	addc	a,(_ms_cnt + 1)
	mov	(_ms_cnt + 1),a
;	main.c:251: if (ms_cnt == duration_ms_isr) {
	mov	a,_duration_ms_isr
	cjne	a,_ms_cnt,00105$
	mov	a,(_duration_ms_isr + 1)
	cjne	a,(_ms_cnt + 1),00105$
;	main.c:252: ms_cnt = 0;
	clr	a
	mov	_ms_cnt,a
	mov	(_ms_cnt + 1),a
;	main.c:253: need_timing = 0;
;	1-genFromRTrack replaced	mov	_need_timing,#0x00
	mov	_need_timing,a
00105$:
	pop	psw
	pop	acc
	reti
;	eliminated unneeded mov psw,# (no regs used in bank)
;	eliminated unneeded push/pop dpl
;	eliminated unneeded push/pop dph
;	eliminated unneeded push/pop b
;------------------------------------------------------------
;Allocation info for local variables in function 'delay_ms'
;------------------------------------------------------------
;ms                        Allocated to registers r6 r7 
;i                         Allocated to registers r4 r5 
;------------------------------------------------------------
;	main.c:272: void delay_ms(uint ms) {
;	-----------------------------------------
;	 function delay_ms
;	-----------------------------------------
_delay_ms:
	mov	r6,dpl
	mov	r7,dph
;	main.c:274: EA = 0;
	clr	_EA
;	main.c:275: TR0 = 0;
	clr	_TR0
;	main.c:276: for (i = 0; i < ms; i++) {
	mov	r4,#0x00
	mov	r5,#0x00
00106$:
	clr	c
	mov	a,r4
	subb	a,r6
	mov	a,r5
	subb	a,r7
	jnc	00104$
;	main.c:278: TF0 = 0;
	clr	_TF0
;	main.c:279: TL0 = (65536 - 1000) % 256;
	mov	_TL0,#0x18
;	main.c:280: TH0 = (65536 - 1000) >> 8;
	mov	_TH0,#0xfc
;	main.c:281: TR0 = 1;
	setb	_TR0
;	main.c:282: while (TF0 == 0);
00101$:
	jnb	_TF0,00101$
;	main.c:276: for (i = 0; i < ms; i++) {
	inc	r4
	cjne	r4,#0x00,00106$
	inc	r5
	sjmp	00106$
00104$:
;	main.c:284: TR0 = 0;
	clr	_TR0
;	main.c:285: TF0 = 0;
	clr	_TF0
;	main.c:286: EA = 1;
	setb	_EA
	ret
;------------------------------------------------------------
;Allocation info for local variables in function 'play_sound'
;------------------------------------------------------------
;duration_ms               Allocated with name '_play_sound_PARM_2'
;pitch                     Allocated to registers r6 r7 
;------------------------------------------------------------
;	main.c:291: void play_sound(uint pitch, uint duration_ms) {
;	-----------------------------------------
;	 function play_sound
;	-----------------------------------------
_play_sound:
	mov	r6,dpl
	mov	r7,dph
;	main.c:294: duration_ms_isr = duration_ms << 1; // duration_ms_isr = duration_ms * 2; // Since the system tempo is 500us, you need a double to get 1ms
	mov	_duration_ms_isr,_play_sound_PARM_2
	mov	a,(_play_sound_PARM_2 + 1)
	xch	a,_duration_ms_isr
	add	a,acc
	xch	a,_duration_ms_isr
	rlc	a
	mov	(_duration_ms_isr + 1),a
;	main.c:295: TL0 = pitch % 256;
	mov	ar4,r6
	mov	r5,#0x00
	mov	_TL0,r4
;	main.c:296: TH0 = pitch >> 8;
	mov	_TH0,r7
;	main.c:297: need_timing = 1;
	mov	_need_timing,#0x01
;	main.c:298: while (need_timing == 1) {
	cjne	r6,#0x01,00126$
	cjne	r7,#0x00,00126$
	setb	c
	sjmp	00127$
00126$:
	clr	c
00127$:
	mov	_play_sound_sloc0_1_0,c
00106$:
	mov	a,#0x01
	cjne	a,_need_timing,00109$
;	main.c:299: if (pitch != 1) {
	jb	_play_sound_sloc0_1_0,00106$
;	main.c:300: pin_sound_out = !pin_sound_out;
	cpl	_P33
;	main.c:301: TR0 = 1;
	setb	_TR0
;	main.c:302: while (TF0 == 0);
00101$:
;	main.c:303: TF0 = 0;
	jbc	_TF0,00106$
	sjmp	00101$
00109$:
	ret
;------------------------------------------------------------
;Allocation info for local variables in function 'play_melody'
;------------------------------------------------------------
;unit_length_ms            Allocated with name '_play_melody_PARM_2'
;melody                    Allocated with name '_play_melody_melody_1_11'
;i                         Allocated to registers 
;true_div                  Allocated to registers r6 
;is_halved                 Allocated to registers r0 
;sloc0                     Allocated with name '_play_melody_sloc0_1_0'
;------------------------------------------------------------
;	main.c:313: void play_melody(Note *melody, uint unit_length_ms) {
;	-----------------------------------------
;	 function play_melody
;	-----------------------------------------
_play_melody:
	mov	_play_melody_melody_1_11,dpl
	mov	(_play_melody_melody_1_11 + 1),dph
	mov	(_play_melody_melody_1_11 + 2),b
;	main.c:317: while (melody[i].pitch != 0){
	clr	a
	mov	r3,#0x00
	mov	r4,#0x00
00101$:
	mov	a,r3
	add	a,_play_melody_melody_1_11
	mov	r1,a
	mov	a,r4
	addc	a,(_play_melody_melody_1_11 + 1)
	mov	r0,a
	mov	r2,(_play_melody_melody_1_11 + 2)
	mov	dpl,r1
	mov	dph,r0
	mov	b,r2
	lcall	__gptrget
	mov	r1,a
	inc	dptr
	lcall	__gptrget
	mov	r2,a
	orl	a,r1
	jnz	00118$
	ret
00118$:
;	main.c:318: is_halved = melody[i].pitch & 0x80;
	mov	a,#0x80
	anl	a,r1
	mov	r0,a
;	main.c:319: true_div = melody[i].pitch & 0x7f;
	mov	a,#0x7f
	anl	a,r1
	mov	r6,a
;	main.c:320: play_sound(melody[i].pitch, 
	mov	ar5,r1
	mov	ar7,r2
;	main.c:321: (is_halved) ? ( unit_length_ms >> true_div + unit_length_ms >> (true_div - 1) )
	mov	a,r0
	jz	00106$
	push	ar5
	push	ar7
	mov	ar1,r6
	mov	r2,#0x00
	mov	ar0,r1
	mov	ar7,r2
	mov	a,_play_melody_PARM_2
	add	a,r0
	mov	r0,a
	mov	a,(_play_melody_PARM_2 + 1)
	addc	a,r7
	mov	b,r0
	inc	b
	mov	r0,_play_melody_PARM_2
	mov	r7,(_play_melody_PARM_2 + 1)
	sjmp	00121$
00120$:
	clr	c
	mov	a,r7
	rrc	a
	mov	r7,a
	mov	a,r0
	rrc	a
	mov	r0,a
00121$:
	djnz	b,00120$
	dec	r1
	cjne	r1,#0xff,00122$
	dec	r2
00122$:
	mov	b,r1
	inc	b
	mov	_play_melody_sloc0_1_0,ar0
	mov	(_play_melody_sloc0_1_0 + 1),ar7
	sjmp	00124$
00123$:
	clr	c
	mov	a,(_play_melody_sloc0_1_0 + 1)
	rrc	a
	mov	(_play_melody_sloc0_1_0 + 1),a
	mov	a,_play_melody_sloc0_1_0
	rrc	a
	mov	_play_melody_sloc0_1_0,a
00124$:
	djnz	b,00123$
	pop	ar7
	pop	ar5
	sjmp	00107$
00106$:
;	main.c:323: );
	mov	b,r6
	inc	b
	mov	_play_melody_sloc0_1_0,_play_melody_PARM_2
	mov	(_play_melody_sloc0_1_0 + 1),(_play_melody_PARM_2 + 1)
	sjmp	00126$
00125$:
	clr	c
	mov	a,(_play_melody_sloc0_1_0 + 1)
	rrc	a
	mov	(_play_melody_sloc0_1_0 + 1),a
	mov	a,_play_melody_sloc0_1_0
	rrc	a
	mov	_play_melody_sloc0_1_0,a
00126$:
	djnz	b,00125$
00107$:
	mov	_play_sound_PARM_2,_play_melody_sloc0_1_0
	mov	(_play_sound_PARM_2 + 1),(_play_melody_sloc0_1_0 + 1)
	mov	dpl,r5
	mov	dph,r7
	push	ar4
	push	ar3
	lcall	_play_sound
	pop	ar3
	pop	ar4
;	main.c:324: i++;
	mov	a,#0x03
	add	a,r3
	mov	r3,a
	clr	a
	addc	a,r4
	mov	r4,a
	ljmp	00101$
;------------------------------------------------------------
;Allocation info for local variables in function 'main'
;------------------------------------------------------------
;	main.c:330: void main(){
;	-----------------------------------------
;	 function main
;	-----------------------------------------
_main:
;	main.c:332: AUXR &= 0xf7;    // T2_C/T' = 0
	anl	_AUXR,#0xf7
;	main.c:333: AUXR &= 0x7f;    // forcing 12T mode for T0
	anl	_AUXR,#0x7f
;	main.c:334: AUXR &= 0xfb;     // forcing 12T mode for T2
	anl	_AUXR,#0xfb
;	main.c:335: TMOD = 0x00;
	mov	_TMOD,#0x00
;	main.c:336: T2L = T2L_RST;
	mov	_T2L,#0x0b
;	main.c:337: T2H = T2H_RST;
	mov	_T2H,#0xfe
;	main.c:338: ET0 = 0;
	clr	_ET0
;	main.c:339: IE2 |= 0x04;   // ET2 = 1
	orl	_IE2,#0x04
;	main.c:340: AUXR |= 0x10;   // T2R = 1
	orl	_AUXR,#0x10
;	main.c:341: EA = 1;
	setb	_EA
;	main.c:352: P34 = 1;
	setb	_P34
;	main.c:353: pin_sound_out = 1;
	setb	_P33
;	main.c:355: P34 = 0;
	clr	_P34
;	main.c:356: play_melody(melody_inocent_treasures, 2500);
	mov	_play_melody_PARM_2,#0xc4
	mov	(_play_melody_PARM_2 + 1),#0x09
	mov	dptr,#_melody_inocent_treasures
	mov	b,#0x80
	lcall	_play_melody
;	main.c:357: pin_sound_out = 0;
	clr	_P33
;	main.c:358: P34 = 1;
	setb	_P34
00103$:
	sjmp	00103$
	.area CSEG    (CODE)
	.area CONST   (CODE)
_melody_inocent_treasures:
	.byte #0xb8,#0xf9	; 63928
	.db #0x03	; 3
	.byte #0xcf,#0xfb	; 64463
	.db #0x04	; 4
	.byte #0x4b,#0xfb	; 64331
	.db #0x04	; 4
	.byte #0xcf,#0xfb	; 64463
	.db #0x03	; 3
	.byte #0x79,#0xfc	; 64633
	.db #0x03	; 3
	.byte #0xdc,#0xfc	; 64732
	.db #0x01	; 1
	.byte #0xb8,#0xf9	; 63928
	.db #0x03	; 3
	.byte #0xcf,#0xfb	; 64463
	.db #0x04	; 4
	.byte #0x4b,#0xfb	; 64331
	.db #0x04	; 4
	.byte #0xcf,#0xfb	; 64463
	.db #0x03	; 3
	.byte #0x79,#0xfc	; 64633
	.db #0x03	; 3
	.byte #0xdc,#0xfc	; 64732
	.db #0x01	; 1
	.byte #0xb8,#0xf9	; 63928
	.db #0x03	; 3
	.byte #0xcf,#0xfb	; 64463
	.db #0x04	; 4
	.byte #0x4b,#0xfb	; 64331
	.db #0x04	; 4
	.byte #0xcf,#0xfb	; 64463
	.db #0x03	; 3
	.byte #0x79,#0xfc	; 64633
	.db #0x03	; 3
	.byte #0xdc,#0xfc	; 64732
	.db #0x02	; 2
	.byte #0xcf,#0xfb	; 64463
	.db #0x03	; 3
	.byte #0x35,#0xfd	; 64821
	.db #0x03	; 3
	.byte #0x5c,#0xfd	; 64860
	.db #0x03	; 3
	.byte #0xcf,#0xfb	; 64463
	.db #0x03	; 3
	.byte #0x35,#0xfd	; 64821
	.db #0x03	; 3
	.byte #0x4b,#0xfb	; 64331
	.db #0x03	; 3
	.byte #0xdc,#0xfc	; 64732
	.db #0x01	; 1
	.byte #0xb8,#0xf9	; 63928
	.db #0x03	; 3
	.byte #0xcf,#0xfb	; 64463
	.db #0x04	; 4
	.byte #0x4b,#0xfb	; 64331
	.db #0x04	; 4
	.byte #0xcf,#0xfb	; 64463
	.db #0x03	; 3
	.byte #0x79,#0xfc	; 64633
	.db #0x03	; 3
	.byte #0xdc,#0xfc	; 64732
	.db #0x01	; 1
	.byte #0xb8,#0xf9	; 63928
	.db #0x03	; 3
	.byte #0xcf,#0xfb	; 64463
	.db #0x04	; 4
	.byte #0x4b,#0xfb	; 64331
	.db #0x04	; 4
	.byte #0xcf,#0xfb	; 64463
	.db #0x03	; 3
	.byte #0x79,#0xfc	; 64633
	.db #0x03	; 3
	.byte #0xdc,#0xfc	; 64732
	.db #0x01	; 1
	.byte #0xb8,#0xf9	; 63928
	.db #0x03	; 3
	.byte #0xcf,#0xfb	; 64463
	.db #0x04	; 4
	.byte #0x4b,#0xfb	; 64331
	.db #0x04	; 4
	.byte #0xcf,#0xfb	; 64463
	.db #0x03	; 3
	.byte #0x79,#0xfc	; 64633
	.db #0x03	; 3
	.byte #0xdc,#0xfc	; 64732
	.db #0x03	; 3
	.byte #0xcf,#0xfb	; 64463
	.db #0x03	; 3
	.byte #0x67,#0xfa	; 64103
	.db #0x03	; 3
	.byte #0xb9,#0xfa	; 64185
	.db #0x03	; 3
	.byte #0xb8,#0xf9	; 63928
	.db #0x03	; 3
	.byte #0xcf,#0xfb	; 64463
	.db #0x03	; 3
	.byte #0x67,#0xfa	; 64103
	.db #0x03	; 3
	.byte #0xb9,#0xfa	; 64185
	.db #0x03	; 3
	.byte #0xb9,#0xfa	; 64185
	.db #0x03	; 3
	.byte #0xb9,#0xfa	; 64185
	.db #0x82	; 130
	.byte #0x01,#0x00	; 1
	.db #0x02	; 2
	.byte #0x01,#0x00	; 1
	.db #0x01	; 1
	.byte #0xb8,#0xf9	; 63928
	.db #0x03	; 3
	.byte #0xb8,#0xf9	; 63928
	.db #0x03	; 3
	.byte #0xb8,#0xf9	; 63928
	.db #0x04	; 4
	.byte #0x67,#0xfa	; 64103
	.db #0x04	; 4
	.byte #0xb9,#0xfa	; 64185
	.db #0x04	; 4
	.byte #0xb8,#0xf9	; 63928
	.db #0x04	; 4
	.byte #0x01,#0x00	; 1
	.db #0x01	; 1
	.byte #0xb8,#0xf9	; 63928
	.db #0x04	; 4
	.byte #0x67,#0xfa	; 64103
	.db #0x04	; 4
	.byte #0xb9,#0xfa	; 64185
	.db #0x04	; 4
	.byte #0x4b,#0xfb	; 64331
	.db #0x04	; 4
	.byte #0x67,#0xfa	; 64103
	.db #0x04	; 4
	.byte #0xb9,#0xfa	; 64185
	.db #0x04	; 4
	.byte #0xb8,#0xf9	; 63928
	.db #0x02	; 2
	.byte #0x01,#0x00	; 1
	.db #0x02	; 2
	.byte #0x01,#0x00	; 1
	.db #0x03	; 3
	.byte #0xb8,#0xf9	; 63928
	.db #0x03	; 3
	.byte #0xb8,#0xf9	; 63928
	.db #0x03	; 3
	.byte #0xb8,#0xf9	; 63928
	.db #0x04	; 4
	.byte #0x67,#0xfa	; 64103
	.db #0x04	; 4
	.byte #0xb9,#0xfa	; 64185
	.db #0x04	; 4
	.byte #0xb8,#0xf9	; 63928
	.db #0x04	; 4
	.byte #0x01,#0x00	; 1
	.db #0x01	; 1
	.byte #0xb8,#0xf9	; 63928
	.db #0x04	; 4
	.byte #0x67,#0xfa	; 64103
	.db #0x04	; 4
	.byte #0xb9,#0xfa	; 64185
	.db #0x04	; 4
	.byte #0x4b,#0xfb	; 64331
	.db #0x04	; 4
	.byte #0x67,#0xfa	; 64103
	.db #0x04	; 4
	.byte #0xb9,#0xfa	; 64185
	.db #0x04	; 4
	.byte #0xb8,#0xf9	; 63928
	.db #0x02	; 2
	.byte #0x01,#0x00	; 1
	.db #0x03	; 3
	.byte #0xb8,#0xf9	; 63928
	.db #0x03	; 3
	.byte #0xb9,#0xfa	; 64185
	.db #0x03	; 3
	.byte #0x4b,#0xfb	; 64331
	.db #0x02	; 2
	.byte #0xcf,#0xfb	; 64463
	.db #0x02	; 2
	.byte #0xb8,#0xf9	; 63928
	.db #0x02	; 2
	.byte #0xb8,#0xf9	; 63928
	.db #0x03	; 3
	.byte #0xb9,#0xfa	; 64185
	.db #0x03	; 3
	.byte #0x4b,#0xfb	; 64331
	.db #0x02	; 2
	.byte #0xcf,#0xfb	; 64463
	.db #0x02	; 2
	.byte #0xf9,#0xf8	; 63737
	.db #0x02	; 2
	.byte #0xb8,#0xf9	; 63928
	.db #0x03	; 3
	.byte #0xb9,#0xfa	; 64185
	.db #0x03	; 3
	.byte #0x4b,#0xfb	; 64331
	.db #0x02	; 2
	.byte #0xcf,#0xfb	; 64463
	.db #0x02	; 2
	.byte #0x79,#0xfc	; 64633
	.db #0x03	; 3
	.byte #0xcf,#0xfb	; 64463
	.db #0x03	; 3
	.byte #0x4b,#0xfb	; 64331
	.db #0x03	; 3
	.byte #0xcf,#0xfb	; 64463
	.db #0x03	; 3
	.byte #0x4b,#0xfb	; 64331
	.db #0x03	; 3
	.byte #0xcf,#0xfb	; 64463
	.db #0x03	; 3
	.byte #0x4b,#0xfb	; 64331
	.db #0x03	; 3
	.byte #0xcf,#0xfb	; 64463
	.db #0x03	; 3
	.byte #0xb8,#0xf9	; 63928
	.db #0x02	; 2
	.byte #0xb8,#0xf9	; 63928
	.db #0x03	; 3
	.byte #0xb9,#0xfa	; 64185
	.db #0x03	; 3
	.byte #0x4b,#0xfb	; 64331
	.db #0x02	; 2
	.byte #0xcf,#0xfb	; 64463
	.db #0x02	; 2
	.byte #0xb8,#0xf9	; 63928
	.db #0x02	; 2
	.byte #0xb8,#0xf9	; 63928
	.db #0x03	; 3
	.byte #0xb9,#0xfa	; 64185
	.db #0x03	; 3
	.byte #0x4b,#0xfb	; 64331
	.db #0x02	; 2
	.byte #0xcf,#0xfb	; 64463
	.db #0x02	; 2
	.byte #0x67,#0xfa	; 64103
	.db #0x02	; 2
	.byte #0xb9,#0xfa	; 64185
	.db #0x03	; 3
	.byte #0xf9,#0xf8	; 63737
	.db #0x03	; 3
	.byte #0x9e,#0xf7	; 63390
	.db #0x00	; 0
	.byte #0x5b,#0xf9	; 63835
	.db #0x02	; 2
	.byte #0x67,#0xfa	; 64103
	.db #0x02	; 2
	.byte #0xcf,#0xfb	; 64463
	.db #0x02	; 2
	.byte #0xb8,#0xf9	; 63928
	.db #0x03	; 3
	.byte #0xb9,#0xfa	; 64185
	.db #0x03	; 3
	.byte #0x4b,#0xfb	; 64331
	.db #0x02	; 2
	.byte #0xcf,#0xfb	; 64463
	.db #0x02	; 2
	.byte #0xb8,#0xf9	; 63928
	.db #0x02	; 2
	.byte #0xb8,#0xf9	; 63928
	.db #0x03	; 3
	.byte #0xb9,#0xfa	; 64185
	.db #0x03	; 3
	.byte #0x4b,#0xfb	; 64331
	.db #0x02	; 2
	.byte #0xcf,#0xfb	; 64463
	.db #0x02	; 2
	.byte #0xb8,#0xf9	; 63928
	.db #0x02	; 2
	.byte #0xb8,#0xf9	; 63928
	.db #0x03	; 3
	.byte #0xb9,#0xfa	; 64185
	.db #0x03	; 3
	.byte #0x4b,#0xfb	; 64331
	.db #0x02	; 2
	.byte #0xcf,#0xfb	; 64463
	.db #0x02	; 2
	.byte #0x79,#0xfc	; 64633
	.db #0x03	; 3
	.byte #0xcf,#0xfb	; 64463
	.db #0x03	; 3
	.byte #0x4b,#0xfb	; 64331
	.db #0x03	; 3
	.byte #0xcf,#0xfb	; 64463
	.db #0x03	; 3
	.byte #0x4b,#0xfb	; 64331
	.db #0x03	; 3
	.byte #0xcf,#0xfb	; 64463
	.db #0x03	; 3
	.byte #0x4b,#0xfb	; 64331
	.db #0x03	; 3
	.byte #0xcf,#0xfb	; 64463
	.db #0x03	; 3
	.byte #0xb8,#0xf9	; 63928
	.db #0x02	; 2
	.byte #0xb8,#0xf9	; 63928
	.db #0x03	; 3
	.byte #0xb9,#0xfa	; 64185
	.db #0x03	; 3
	.byte #0x4b,#0xfb	; 64331
	.db #0x02	; 2
	.byte #0xcf,#0xfb	; 64463
	.db #0x02	; 2
	.byte #0xb8,#0xf9	; 63928
	.db #0x02	; 2
	.byte #0xb8,#0xf9	; 63928
	.db #0x03	; 3
	.byte #0xb9,#0xfa	; 64185
	.db #0x03	; 3
	.byte #0x4b,#0xfb	; 64331
	.db #0x02	; 2
	.byte #0xcf,#0xfb	; 64463
	.db #0x02	; 2
	.byte #0x67,#0xfa	; 64103
	.db #0x02	; 2
	.byte #0xb9,#0xfa	; 64185
	.db #0x03	; 3
	.byte #0xf9,#0xf8	; 63737
	.db #0x03	; 3
	.byte #0x9e,#0xf7	; 63390
	.db #0x00	; 0
	.byte #0x01,#0x00	; 1
	.db #0x00	; 0
	.byte #0xcf,#0xfb	; 64463
	.db #0x01	; 1
	.byte #0xcf,#0xfb	; 64463
	.db #0x84	; 132
	.byte #0x4b,#0xfb	; 64331
	.db #0x84	; 132
	.byte #0xb8,#0xf9	; 63928
	.db #0x03	; 3
	.byte #0xcf,#0xfb	; 64463
	.db #0x01	; 1
	.byte #0xcf,#0xfb	; 64463
	.db #0x84	; 132
	.byte #0x4b,#0xfb	; 64331
	.db #0x84	; 132
	.byte #0xb8,#0xf9	; 63928
	.db #0x03	; 3
	.byte #0x4b,#0xfb	; 64331
	.db #0x01	; 1
	.byte #0x4b,#0xfb	; 64331
	.db #0x84	; 132
	.byte #0xcf,#0xfb	; 64463
	.db #0x84	; 132
	.byte #0xb8,#0xf9	; 63928
	.db #0x03	; 3
	.byte #0x04,#0xfb	; 64260
	.db #0x02	; 2
	.byte #0x4b,#0xfb	; 64331
	.db #0x02	; 2
	.byte #0xcf,#0xfb	; 64463
	.db #0x02	; 2
	.byte #0xb8,#0xf9	; 63928
	.db #0x02	; 2
	.byte #0xcf,#0xfb	; 64463
	.db #0x01	; 1
	.byte #0xcf,#0xfb	; 64463
	.db #0x84	; 132
	.byte #0x4b,#0xfb	; 64331
	.db #0x84	; 132
	.byte #0xb8,#0xf9	; 63928
	.db #0x03	; 3
	.byte #0xcf,#0xfb	; 64463
	.db #0x01	; 1
	.byte #0xcf,#0xfb	; 64463
	.db #0x84	; 132
	.byte #0xb8,#0xf9	; 63928
	.db #0x84	; 132
	.byte #0xb9,#0xfa	; 64185
	.db #0x03	; 3
	.byte #0x4b,#0xfb	; 64331
	.db #0x01	; 1
	.byte #0xb8,#0xf9	; 63928
	.db #0x84	; 132
	.byte #0x4b,#0xfb	; 64331
	.db #0x84	; 132
	.byte #0x0c,#0xfc	; 64524
	.db #0x03	; 3
	.byte #0x18,#0xf8	; 63512
	.db #0x03	; 3
	.byte #0xb8,#0xf9	; 63928
	.db #0x03	; 3
	.byte #0xcf,#0xfb	; 64463
	.db #0x03	; 3
	.byte #0xb8,#0xf9	; 63928
	.db #0x03	; 3
	.byte #0x4b,#0xfb	; 64331
	.db #0x02	; 2
	.byte #0xb8,#0xf9	; 63928
	.db #0x03	; 3
	.byte #0xb9,#0xfa	; 64185
	.db #0x03	; 3
	.byte #0x4b,#0xfb	; 64331
	.db #0x02	; 2
	.byte #0xcf,#0xfb	; 64463
	.db #0x02	; 2
	.byte #0xb8,#0xf9	; 63928
	.db #0x02	; 2
	.byte #0xb8,#0xf9	; 63928
	.db #0x03	; 3
	.byte #0xb9,#0xfa	; 64185
	.db #0x03	; 3
	.byte #0x4b,#0xfb	; 64331
	.db #0x02	; 2
	.byte #0xcf,#0xfb	; 64463
	.db #0x02	; 2
	.byte #0xf9,#0xf8	; 63737
	.db #0x02	; 2
	.byte #0xb8,#0xf9	; 63928
	.db #0x03	; 3
	.byte #0xb9,#0xfa	; 64185
	.db #0x03	; 3
	.byte #0x4b,#0xfb	; 64331
	.db #0x02	; 2
	.byte #0xcf,#0xfb	; 64463
	.db #0x02	; 2
	.byte #0x79,#0xfc	; 64633
	.db #0x03	; 3
	.byte #0xcf,#0xfb	; 64463
	.db #0x03	; 3
	.byte #0x4b,#0xfb	; 64331
	.db #0x03	; 3
	.byte #0xcf,#0xfb	; 64463
	.db #0x03	; 3
	.byte #0x4b,#0xfb	; 64331
	.db #0x03	; 3
	.byte #0xcf,#0xfb	; 64463
	.db #0x03	; 3
	.byte #0x4b,#0xfb	; 64331
	.db #0x03	; 3
	.byte #0xcf,#0xfb	; 64463
	.db #0x03	; 3
	.byte #0xb8,#0xf9	; 63928
	.db #0x02	; 2
	.byte #0xb8,#0xf9	; 63928
	.db #0x03	; 3
	.byte #0xb9,#0xfa	; 64185
	.db #0x03	; 3
	.byte #0x4b,#0xfb	; 64331
	.db #0x02	; 2
	.byte #0xcf,#0xfb	; 64463
	.db #0x02	; 2
	.byte #0xb8,#0xf9	; 63928
	.db #0x02	; 2
	.byte #0xb8,#0xf9	; 63928
	.db #0x03	; 3
	.byte #0xb9,#0xfa	; 64185
	.db #0x03	; 3
	.byte #0x4b,#0xfb	; 64331
	.db #0x02	; 2
	.byte #0xcf,#0xfb	; 64463
	.db #0x02	; 2
	.byte #0x67,#0xfa	; 64103
	.db #0x02	; 2
	.byte #0xb9,#0xfa	; 64185
	.db #0x03	; 3
	.byte #0xf9,#0xf8	; 63737
	.db #0x03	; 3
	.byte #0x9e,#0xf7	; 63390
	.db #0x01	; 1
	.byte #0x5b,#0xf9	; 63835
	.db #0x02	; 2
	.byte #0x67,#0xfa	; 64103
	.db #0x02	; 2
	.byte #0xcf,#0xfb	; 64463
	.db #0x02	; 2
	.byte #0xb8,#0xf9	; 63928
	.db #0x03	; 3
	.byte #0xb9,#0xfa	; 64185
	.db #0x03	; 3
	.byte #0x4b,#0xfb	; 64331
	.db #0x02	; 2
	.byte #0xcf,#0xfb	; 64463
	.db #0x02	; 2
	.byte #0xb8,#0xf9	; 63928
	.db #0x02	; 2
	.byte #0xb8,#0xf9	; 63928
	.db #0x03	; 3
	.byte #0xb9,#0xfa	; 64185
	.db #0x03	; 3
	.byte #0x4b,#0xfb	; 64331
	.db #0x02	; 2
	.byte #0xcf,#0xfb	; 64463
	.db #0x02	; 2
	.byte #0xf9,#0xf8	; 63737
	.db #0x02	; 2
	.byte #0xf9,#0xf8	; 63737
	.db #0x03	; 3
	.byte #0xb9,#0xfa	; 64185
	.db #0x03	; 3
	.byte #0x4b,#0xfb	; 64331
	.db #0x02	; 2
	.byte #0xcf,#0xfb	; 64463
	.db #0x02	; 2
	.byte #0x79,#0xfc	; 64633
	.db #0x03	; 3
	.byte #0xcf,#0xfb	; 64463
	.db #0x03	; 3
	.byte #0x4b,#0xfb	; 64331
	.db #0x03	; 3
	.byte #0xcf,#0xfb	; 64463
	.db #0x03	; 3
	.byte #0x4b,#0xfb	; 64331
	.db #0x03	; 3
	.byte #0xcf,#0xfb	; 64463
	.db #0x03	; 3
	.byte #0x4b,#0xfb	; 64331
	.db #0x03	; 3
	.byte #0xcf,#0xfb	; 64463
	.db #0x03	; 3
	.byte #0xb8,#0xf9	; 63928
	.db #0x02	; 2
	.byte #0xb8,#0xf9	; 63928
	.db #0x03	; 3
	.byte #0xb9,#0xfa	; 64185
	.db #0x03	; 3
	.byte #0x4b,#0xfb	; 64331
	.db #0x02	; 2
	.byte #0xcf,#0xfb	; 64463
	.db #0x02	; 2
	.byte #0xb8,#0xf9	; 63928
	.db #0x02	; 2
	.byte #0xb8,#0xf9	; 63928
	.db #0x03	; 3
	.byte #0xb9,#0xfa	; 64185
	.db #0x03	; 3
	.byte #0x4b,#0xfb	; 64331
	.db #0x02	; 2
	.byte #0xcf,#0xfb	; 64463
	.db #0x02	; 2
	.byte #0x67,#0xfa	; 64103
	.db #0x02	; 2
	.byte #0xb9,#0xfa	; 64185
	.db #0x03	; 3
	.byte #0xf9,#0xf8	; 63737
	.db #0x03	; 3
	.byte #0x9e,#0xf7	; 63390
	.db #0x00	; 0
	.byte #0xcf,#0xfb	; 64463
	.db #0x00	; 0
	.byte #0xcf,#0xfb	; 64463
	.db #0x03	; 3
	.byte #0xdc,#0xfc	; 64732
	.db #0x03	; 3
	.byte #0x5c,#0xfd	; 64860
	.db #0x03	; 3
	.byte #0xa6,#0xfd	; 64934
	.db #0x03	; 3
	.byte #0x5c,#0xfd	; 64860
	.db #0x03	; 3
	.byte #0xdc,#0xfc	; 64732
	.db #0x03	; 3
	.byte #0x79,#0xfc	; 64633
	.db #0x03	; 3
	.byte #0xdc,#0xfc	; 64732
	.db #0x03	; 3
	.byte #0xcf,#0xfb	; 64463
	.db #0x02	; 2
	.byte #0xcf,#0xfb	; 64463
	.db #0x00	; 0
	.byte #0xdc,#0xfc	; 64732
	.db #0x03	; 3
	.byte #0x5c,#0xfd	; 64860
	.db #0x03	; 3
	.byte #0xa6,#0xfd	; 64934
	.db #0x03	; 3
	.byte #0x06,#0xfe	; 65030
	.db #0x03	; 3
	.byte #0xe8,#0xfd	; 65000
	.db #0x03	; 3
	.byte #0xa6,#0xfd	; 64934
	.db #0x03	; 3
	.byte #0x5c,#0xfd	; 64860
	.db #0x02	; 2
	.byte #0xa6,#0xfd	; 64934
	.db #0x01	; 1
	.byte #0xa6,#0xfd	; 64934
	.db #0x02	; 2
	.byte #0xdc,#0xfc	; 64732
	.db #0x03	; 3
	.byte #0x5c,#0xfd	; 64860
	.db #0x03	; 3
	.byte #0x79,#0xfc	; 64633
	.db #0x03	; 3
	.byte #0xdc,#0xfc	; 64732
	.db #0x03	; 3
	.byte #0xcf,#0xfb	; 64463
	.db #0x03	; 3
	.byte #0x79,#0xfc	; 64633
	.db #0x03	; 3
	.byte #0x4b,#0xfb	; 64331
	.db #0x03	; 3
	.byte #0xcf,#0xfb	; 64463
	.db #0x00	; 0
	.byte #0xcf,#0xfb	; 64463
	.db #0x03	; 3
	.byte #0xdc,#0xfc	; 64732
	.db #0x03	; 3
	.byte #0x5c,#0xfd	; 64860
	.db #0x03	; 3
	.byte #0xa6,#0xfd	; 64934
	.db #0x03	; 3
	.byte #0x5c,#0xfd	; 64860
	.db #0x03	; 3
	.byte #0xdc,#0xfc	; 64732
	.db #0x03	; 3
	.byte #0x79,#0xfc	; 64633
	.db #0x02	; 2
	.byte #0xcf,#0xfb	; 64463
	.db #0x00	; 0
	.byte #0xcf,#0xfb	; 64463
	.db #0x03	; 3
	.byte #0xdc,#0xfc	; 64732
	.db #0x03	; 3
	.byte #0x5c,#0xfd	; 64860
	.db #0x03	; 3
	.byte #0xa6,#0xfd	; 64934
	.db #0x03	; 3
	.byte #0x5c,#0xfd	; 64860
	.db #0x03	; 3
	.byte #0xdc,#0xfc	; 64732
	.db #0x03	; 3
	.byte #0x79,#0xfc	; 64633
	.db #0x03	; 3
	.byte #0xdc,#0xfc	; 64732
	.db #0x03	; 3
	.byte #0xcf,#0xfb	; 64463
	.db #0x00	; 0
	.byte #0xdc,#0xfc	; 64732
	.db #0x03	; 3
	.byte #0x5c,#0xfd	; 64860
	.db #0x03	; 3
	.byte #0xa6,#0xfd	; 64934
	.db #0x03	; 3
	.byte #0x06,#0xfe	; 65030
	.db #0x03	; 3
	.byte #0xe8,#0xfd	; 65000
	.db #0x03	; 3
	.byte #0xa6,#0xfd	; 64934
	.db #0x03	; 3
	.byte #0x5c,#0xfd	; 64860
	.db #0x02	; 2
	.byte #0xa6,#0xfd	; 64934
	.db #0x82	; 130
	.byte #0xa6,#0xfd	; 64934
	.db #0x02	; 2
	.byte #0xdc,#0xfc	; 64732
	.db #0x03	; 3
	.byte #0x5c,#0xfd	; 64860
	.db #0x03	; 3
	.byte #0x79,#0xfc	; 64633
	.db #0x03	; 3
	.byte #0xdc,#0xfc	; 64732
	.db #0x03	; 3
	.byte #0x0c,#0xfc	; 64524
	.db #0x03	; 3
	.byte #0x79,#0xfc	; 64633
	.db #0x03	; 3
	.byte #0x4b,#0xfb	; 64331
	.db #0x03	; 3
	.byte #0x4b,#0xfb	; 64331
	.db #0x83	; 131
	.byte #0xa6,#0xfd	; 64934
	.db #0x02	; 2
	.byte #0xe8,#0xfd	; 65000
	.db #0x04	; 4
	.byte #0x06,#0xfe	; 65030
	.db #0x04	; 4
	.byte #0x6e,#0xfe	; 65134
	.db #0x04	; 4
	.byte #0x06,#0xfe	; 65030
	.db #0x04	; 4
	.byte #0xe8,#0xfd	; 65000
	.db #0x04	; 4
	.byte #0xdc,#0xfc	; 64732
	.db #0x04	; 4
	.byte #0x5c,#0xfd	; 64860
	.db #0x03	; 3
	.byte #0xa6,#0xfd	; 64934
	.db #0x03	; 3
	.byte #0x06,#0xfe	; 65030
	.db #0x03	; 3
	.byte #0xe8,#0xfd	; 65000
	.db #0x03	; 3
	.byte #0xa6,#0xfd	; 64934
	.db #0x03	; 3
	.byte #0x5c,#0xfd	; 64860
	.db #0x02	; 2
	.byte #0xa6,#0xfd	; 64934
	.db #0x82	; 130
	.byte #0xdc,#0xfc	; 64732
	.db #0x03	; 3
	.byte #0x5c,#0xfd	; 64860
	.db #0x03	; 3
	.byte #0xa6,#0xfd	; 64934
	.db #0x02	; 2
	.byte #0xe8,#0xfd	; 65000
	.db #0x02	; 2
	.byte #0xdc,#0xfc	; 64732
	.db #0x02	; 2
	.byte #0xdc,#0xfc	; 64732
	.db #0x03	; 3
	.byte #0x5c,#0xfd	; 64860
	.db #0x03	; 3
	.byte #0xa6,#0xfd	; 64934
	.db #0x02	; 2
	.byte #0xe8,#0xfd	; 65000
	.db #0x02	; 2
	.byte #0x3d,#0xfe	; 65085
	.db #0x03	; 3
	.byte #0xe8,#0xfd	; 65000
	.db #0x03	; 3
	.byte #0xa6,#0xfd	; 64934
	.db #0x03	; 3
	.byte #0xe8,#0xfd	; 65000
	.db #0x03	; 3
	.byte #0x6e,#0xfe	; 65134
	.db #0x00	; 0
	.byte #0x01,#0x00	; 1
	.db #0x00	; 0
	.byte #0xb8,#0xf9	; 63928
	.db #0x03	; 3
	.byte #0xcf,#0xfb	; 64463
	.db #0x04	; 4
	.byte #0x4b,#0xfb	; 64331
	.db #0x04	; 4
	.byte #0xcf,#0xfb	; 64463
	.db #0x03	; 3
	.byte #0x79,#0xfc	; 64633
	.db #0x03	; 3
	.byte #0xdc,#0xfc	; 64732
	.db #0x01	; 1
	.byte #0xb8,#0xf9	; 63928
	.db #0x03	; 3
	.byte #0xcf,#0xfb	; 64463
	.db #0x04	; 4
	.byte #0x4b,#0xfb	; 64331
	.db #0x04	; 4
	.byte #0xcf,#0xfb	; 64463
	.db #0x03	; 3
	.byte #0x79,#0xfc	; 64633
	.db #0x03	; 3
	.byte #0xdc,#0xfc	; 64732
	.db #0x01	; 1
	.byte #0xb8,#0xf9	; 63928
	.db #0x03	; 3
	.byte #0xcf,#0xfb	; 64463
	.db #0x04	; 4
	.byte #0x4b,#0xfb	; 64331
	.db #0x04	; 4
	.byte #0xcf,#0xfb	; 64463
	.db #0x03	; 3
	.byte #0x79,#0xfc	; 64633
	.db #0x03	; 3
	.byte #0xdc,#0xfc	; 64732
	.db #0x02	; 2
	.byte #0xcf,#0xfb	; 64463
	.db #0x03	; 3
	.byte #0x35,#0xfd	; 64821
	.db #0x03	; 3
	.byte #0x5c,#0xfd	; 64860
	.db #0x03	; 3
	.byte #0xcf,#0xfb	; 64463
	.db #0x03	; 3
	.byte #0x35,#0xfd	; 64821
	.db #0x03	; 3
	.byte #0x4b,#0xfb	; 64331
	.db #0x03	; 3
	.byte #0xdc,#0xfc	; 64732
	.db #0x01	; 1
	.byte #0xb8,#0xf9	; 63928
	.db #0x03	; 3
	.byte #0xcf,#0xfb	; 64463
	.db #0x04	; 4
	.byte #0x4b,#0xfb	; 64331
	.db #0x04	; 4
	.byte #0xcf,#0xfb	; 64463
	.db #0x03	; 3
	.byte #0x79,#0xfc	; 64633
	.db #0x03	; 3
	.byte #0xdc,#0xfc	; 64732
	.db #0x01	; 1
	.byte #0xb8,#0xf9	; 63928
	.db #0x03	; 3
	.byte #0xcf,#0xfb	; 64463
	.db #0x04	; 4
	.byte #0x4b,#0xfb	; 64331
	.db #0x04	; 4
	.byte #0xcf,#0xfb	; 64463
	.db #0x03	; 3
	.byte #0x79,#0xfc	; 64633
	.db #0x03	; 3
	.byte #0xdc,#0xfc	; 64732
	.db #0x01	; 1
	.byte #0x01,#0x00	; 1
	.db #0x01	; 1
	.byte #0x15,#0xfa	; 64021
	.db #0x02	; 2
	.byte #0x04,#0xfb	; 64260
	.db #0x02	; 2
	.byte #0x90,#0xfb	; 64400
	.db #0x02	; 2
	.byte #0x0c,#0xfc	; 64524
	.db #0x02	; 2
	.byte #0x15,#0xfa	; 64021
	.db #0x02	; 2
	.byte #0x15,#0xfa	; 64021
	.db #0x03	; 3
	.byte #0x04,#0xfb	; 64260
	.db #0x03	; 3
	.byte #0x90,#0xfb	; 64400
	.db #0x02	; 2
	.byte #0x0c,#0xfc	; 64524
	.db #0x02	; 2
	.byte #0x5b,#0xf9	; 63835
	.db #0x02	; 2
	.byte #0x5b,#0xf9	; 63835
	.db #0x03	; 3
	.byte #0x04,#0xfb	; 64260
	.db #0x03	; 3
	.byte #0x90,#0xfb	; 64400
	.db #0x02	; 2
	.byte #0x0c,#0xfc	; 64524
	.db #0x02	; 2
	.byte #0xac,#0xfc	; 64684
	.db #0x03	; 3
	.byte #0x0c,#0xfc	; 64524
	.db #0x03	; 3
	.byte #0x90,#0xfb	; 64400
	.db #0x03	; 3
	.byte #0x0c,#0xfc	; 64524
	.db #0x03	; 3
	.byte #0x90,#0xfb	; 64400
	.db #0x03	; 3
	.byte #0x0c,#0xfc	; 64524
	.db #0x03	; 3
	.byte #0x90,#0xfb	; 64400
	.db #0x03	; 3
	.byte #0x0c,#0xfc	; 64524
	.db #0x03	; 3
	.byte #0x15,#0xfa	; 64021
	.db #0x02	; 2
	.byte #0x15,#0xfa	; 64021
	.db #0x03	; 3
	.byte #0x04,#0xfb	; 64260
	.db #0x03	; 3
	.byte #0x90,#0xfb	; 64400
	.db #0x02	; 2
	.byte #0x0c,#0xfc	; 64524
	.db #0x02	; 2
	.byte #0x15,#0xfa	; 64021
	.db #0x02	; 2
	.byte #0x15,#0xfa	; 64021
	.db #0x03	; 3
	.byte #0x04,#0xfb	; 64260
	.db #0x03	; 3
	.byte #0x90,#0xfb	; 64400
	.db #0x02	; 2
	.byte #0x0c,#0xfc	; 64524
	.db #0x02	; 2
	.byte #0xb9,#0xfa	; 64185
	.db #0x02	; 2
	.byte #0xb9,#0xfa	; 64185
	.db #0x03	; 3
	.byte #0x5b,#0xf9	; 63835
	.db #0x03	; 3
	.byte #0x18,#0xf8	; 63512
	.db #0x00	; 0
	.byte #0x18,#0xf8	; 63512
	.db #0x02	; 2
	.byte #0xb9,#0xfa	; 64185
	.db #0x02	; 2
	.byte #0x0c,#0xfc	; 64524
	.db #0x02	; 2
	.byte #0x15,#0xfa	; 64021
	.db #0x03	; 3
	.byte #0x04,#0xfb	; 64260
	.db #0x03	; 3
	.byte #0x90,#0xfb	; 64400
	.db #0x02	; 2
	.byte #0x0c,#0xfc	; 64524
	.db #0x02	; 2
	.byte #0x15,#0xfa	; 64021
	.db #0x02	; 2
	.byte #0x15,#0xfa	; 64021
	.db #0x03	; 3
	.byte #0x04,#0xfb	; 64260
	.db #0x03	; 3
	.byte #0x90,#0xfb	; 64400
	.db #0x02	; 2
	.byte #0x0c,#0xfc	; 64524
	.db #0x02	; 2
	.byte #0x5b,#0xf9	; 63835
	.db #0x02	; 2
	.byte #0x5b,#0xf9	; 63835
	.db #0x03	; 3
	.byte #0x04,#0xfb	; 64260
	.db #0x03	; 3
	.byte #0x90,#0xfb	; 64400
	.db #0x02	; 2
	.byte #0x0c,#0xfc	; 64524
	.db #0x02	; 2
	.byte #0xac,#0xfc	; 64684
	.db #0x03	; 3
	.byte #0x0c,#0xfc	; 64524
	.db #0x03	; 3
	.byte #0x90,#0xfb	; 64400
	.db #0x03	; 3
	.byte #0x0c,#0xfc	; 64524
	.db #0x03	; 3
	.byte #0x90,#0xfb	; 64400
	.db #0x03	; 3
	.byte #0x0c,#0xfc	; 64524
	.db #0x03	; 3
	.byte #0x90,#0xfb	; 64400
	.db #0x03	; 3
	.byte #0x0c,#0xfc	; 64524
	.db #0x03	; 3
	.byte #0x15,#0xfa	; 64021
	.db #0x02	; 2
	.byte #0x15,#0xfa	; 64021
	.db #0x03	; 3
	.byte #0x04,#0xfb	; 64260
	.db #0x03	; 3
	.byte #0x90,#0xfb	; 64400
	.db #0x02	; 2
	.byte #0x0c,#0xfc	; 64524
	.db #0x02	; 2
	.byte #0x15,#0xfa	; 64021
	.db #0x02	; 2
	.byte #0x15,#0xfa	; 64021
	.db #0x03	; 3
	.byte #0x04,#0xfb	; 64260
	.db #0x03	; 3
	.byte #0x90,#0xfb	; 64400
	.db #0x02	; 2
	.byte #0x0c,#0xfc	; 64524
	.db #0x02	; 2
	.byte #0xb9,#0xfa	; 64185
	.db #0x02	; 2
	.byte #0xb9,#0xfa	; 64185
	.db #0x03	; 3
	.byte #0x5b,#0xf9	; 63835
	.db #0x03	; 3
	.byte #0x18,#0xf8	; 63512
	.db #0x00	; 0
	.byte #0x01,#0x00	; 1
	.db #0x00	; 0
	.byte #0x90,#0xfb	; 64400
	.db #0x02	; 2
	.byte #0x0c,#0xfc	; 64524
	.db #0x02	; 2
	.byte #0x15,#0xfa	; 64021
	.db #0x02	; 2
	.byte #0x15,#0xfa	; 64021
	.db #0x03	; 3
	.byte #0x04,#0xfb	; 64260
	.db #0x03	; 3
	.byte #0x90,#0xfb	; 64400
	.db #0x02	; 2
	.byte #0x0c,#0xfc	; 64524
	.db #0x02	; 2
	.byte #0x15,#0xfa	; 64021
	.db #0x02	; 2
	.byte #0x15,#0xfa	; 64021
	.db #0x03	; 3
	.byte #0x04,#0xfb	; 64260
	.db #0x03	; 3
	.byte #0x90,#0xfb	; 64400
	.db #0x02	; 2
	.byte #0x0c,#0xfc	; 64524
	.db #0x02	; 2
	.byte #0xac,#0xfc	; 64684
	.db #0x03	; 3
	.byte #0x0c,#0xfc	; 64524
	.db #0x03	; 3
	.byte #0x90,#0xfb	; 64400
	.db #0x03	; 3
	.byte #0x0c,#0xfc	; 64524
	.db #0x03	; 3
	.byte #0x90,#0xfb	; 64400
	.db #0x03	; 3
	.byte #0x0c,#0xfc	; 64524
	.db #0x03	; 3
	.byte #0x90,#0xfb	; 64400
	.db #0x03	; 3
	.byte #0x0c,#0xfc	; 64524
	.db #0x03	; 3
	.byte #0x15,#0xfa	; 64021
	.db #0x02	; 2
	.byte #0x15,#0xfa	; 64021
	.db #0x03	; 3
	.byte #0x04,#0xfb	; 64260
	.db #0x03	; 3
	.byte #0x90,#0xfb	; 64400
	.db #0x02	; 2
	.byte #0x0c,#0xfc	; 64524
	.db #0x02	; 2
	.byte #0x15,#0xfa	; 64021
	.db #0x02	; 2
	.byte #0x15,#0xfa	; 64021
	.db #0x03	; 3
	.byte #0x04,#0xfb	; 64260
	.db #0x03	; 3
	.byte #0x90,#0xfb	; 64400
	.db #0x02	; 2
	.byte #0x0c,#0xfc	; 64524
	.db #0x02	; 2
	.byte #0xb9,#0xfa	; 64185
	.db #0x02	; 2
	.byte #0xb9,#0xfa	; 64185
	.db #0x03	; 3
	.byte #0x5b,#0xf9	; 63835
	.db #0x03	; 3
	.byte #0x18,#0xf8	; 63512
	.db #0x00	; 0
	.byte #0xb8,#0xf9	; 63928
	.db #0x02	; 2
	.byte #0xb9,#0xfa	; 64185
	.db #0x02	; 2
	.byte #0x0c,#0xfc	; 64524
	.db #0x02	; 2
	.byte #0x15,#0xfa	; 64021
	.db #0x03	; 3
	.byte #0x04,#0xfb	; 64260
	.db #0x03	; 3
	.byte #0x90,#0xfb	; 64400
	.db #0x02	; 2
	.byte #0x0c,#0xfc	; 64524
	.db #0x02	; 2
	.byte #0x15,#0xfa	; 64021
	.db #0x02	; 2
	.byte #0x15,#0xfa	; 64021
	.db #0x03	; 3
	.byte #0x04,#0xfb	; 64260
	.db #0x03	; 3
	.byte #0x90,#0xfb	; 64400
	.db #0x02	; 2
	.byte #0x0c,#0xfc	; 64524
	.db #0x02	; 2
	.byte #0x15,#0xfa	; 64021
	.db #0x02	; 2
	.byte #0x15,#0xfa	; 64021
	.db #0x03	; 3
	.byte #0x04,#0xfb	; 64260
	.db #0x03	; 3
	.byte #0x90,#0xfb	; 64400
	.db #0x02	; 2
	.byte #0x0c,#0xfc	; 64524
	.db #0x02	; 2
	.byte #0xac,#0xfc	; 64684
	.db #0x03	; 3
	.byte #0x0c,#0xfc	; 64524
	.db #0x03	; 3
	.byte #0x90,#0xfb	; 64400
	.db #0x03	; 3
	.byte #0x0c,#0xfc	; 64524
	.db #0x03	; 3
	.byte #0x90,#0xfb	; 64400
	.db #0x03	; 3
	.byte #0x0c,#0xfc	; 64524
	.db #0x03	; 3
	.byte #0x90,#0xfb	; 64400
	.db #0x03	; 3
	.byte #0x0c,#0xfc	; 64524
	.db #0x03	; 3
	.byte #0x15,#0xfa	; 64021
	.db #0x02	; 2
	.byte #0x15,#0xfa	; 64021
	.db #0x03	; 3
	.byte #0x04,#0xfb	; 64260
	.db #0x03	; 3
	.byte #0x90,#0xfb	; 64400
	.db #0x02	; 2
	.byte #0x0c,#0xfc	; 64524
	.db #0x02	; 2
	.byte #0x15,#0xfa	; 64021
	.db #0x02	; 2
	.byte #0x15,#0xfa	; 64021
	.db #0x03	; 3
	.byte #0x04,#0xfb	; 64260
	.db #0x03	; 3
	.byte #0x90,#0xfb	; 64400
	.db #0x02	; 2
	.byte #0x0c,#0xfc	; 64524
	.db #0x02	; 2
	.byte #0xb9,#0xfa	; 64185
	.db #0x02	; 2
	.byte #0xb9,#0xfa	; 64185
	.db #0x03	; 3
	.byte #0x5b,#0xf9	; 63835
	.db #0x03	; 3
	.byte #0x18,#0xf8	; 63512
	.db #0x00	; 0
	.byte #0x01,#0x00	; 1
	.db #0x00	; 0
	.byte #0x0c,#0xfc	; 64524
	.db #0x01	; 1
	.byte #0x0c,#0xfc	; 64524
	.db #0x84	; 132
	.byte #0x90,#0xfb	; 64400
	.db #0x84	; 132
	.byte #0x15,#0xfa	; 64021
	.db #0x03	; 3
	.byte #0x0c,#0xfc	; 64524
	.db #0x01	; 1
	.byte #0x0c,#0xfc	; 64524
	.db #0x84	; 132
	.byte #0x90,#0xfb	; 64400
	.db #0x84	; 132
	.byte #0x15,#0xfa	; 64021
	.db #0x03	; 3
	.byte #0x90,#0xfb	; 64400
	.db #0x01	; 1
	.byte #0x90,#0xfb	; 64400
	.db #0x84	; 132
	.byte #0x0c,#0xfc	; 64524
	.db #0x84	; 132
	.byte #0x15,#0xfa	; 64021
	.db #0x03	; 3
	.byte #0x4b,#0xfb	; 64331
	.db #0x02	; 2
	.byte #0x90,#0xfb	; 64400
	.db #0x02	; 2
	.byte #0x0c,#0xfc	; 64524
	.db #0x02	; 2
	.byte #0x15,#0xfa	; 64021
	.db #0x02	; 2
	.byte #0x0c,#0xfc	; 64524
	.db #0x01	; 1
	.byte #0x0c,#0xfc	; 64524
	.db #0x84	; 132
	.byte #0x90,#0xfb	; 64400
	.db #0x84	; 132
	.byte #0x15,#0xfa	; 64021
	.db #0x03	; 3
	.byte #0x0c,#0xfc	; 64524
	.db #0x01	; 1
	.byte #0x0c,#0xfc	; 64524
	.db #0x84	; 132
	.byte #0x15,#0xfa	; 64021
	.db #0x84	; 132
	.byte #0x04,#0xfb	; 64260
	.db #0x03	; 3
	.byte #0x90,#0xfb	; 64400
	.db #0x01	; 1
	.byte #0x15,#0xfa	; 64021
	.db #0x84	; 132
	.byte #0x0c,#0xfc	; 64524
	.db #0x84	; 132
	.byte #0x44,#0xfc	; 64580
	.db #0x03	; 3
	.byte #0x44,#0xfc	; 64580
	.db #0x03	; 3
	.byte #0x15,#0xfa	; 64021
	.db #0x03	; 3
	.byte #0x0c,#0xfc	; 64524
	.db #0x03	; 3
	.byte #0x15,#0xfa	; 64021
	.db #0x03	; 3
	.byte #0x90,#0xfb	; 64400
	.db #0x02	; 2
	.byte #0x15,#0xfa	; 64021
	.db #0x03	; 3
	.byte #0x04,#0xfb	; 64260
	.db #0x03	; 3
	.byte #0x90,#0xfb	; 64400
	.db #0x02	; 2
	.byte #0x0c,#0xfc	; 64524
	.db #0x02	; 2
	.byte #0x15,#0xfa	; 64021
	.db #0x02	; 2
	.byte #0x15,#0xfa	; 64021
	.db #0x03	; 3
	.byte #0x04,#0xfb	; 64260
	.db #0x03	; 3
	.byte #0x90,#0xfb	; 64400
	.db #0x02	; 2
	.byte #0x0c,#0xfc	; 64524
	.db #0x02	; 2
	.byte #0x15,#0xfa	; 64021
	.db #0x02	; 2
	.byte #0x15,#0xfa	; 64021
	.db #0x03	; 3
	.byte #0x04,#0xfb	; 64260
	.db #0x03	; 3
	.byte #0x90,#0xfb	; 64400
	.db #0x02	; 2
	.byte #0x0c,#0xfc	; 64524
	.db #0x02	; 2
	.byte #0xac,#0xfc	; 64684
	.db #0x03	; 3
	.byte #0x0c,#0xfc	; 64524
	.db #0x03	; 3
	.byte #0x90,#0xfb	; 64400
	.db #0x03	; 3
	.byte #0x0c,#0xfc	; 64524
	.db #0x03	; 3
	.byte #0x90,#0xfb	; 64400
	.db #0x03	; 3
	.byte #0x0c,#0xfc	; 64524
	.db #0x03	; 3
	.byte #0x90,#0xfb	; 64400
	.db #0x03	; 3
	.byte #0x0c,#0xfc	; 64524
	.db #0x03	; 3
	.byte #0x15,#0xfa	; 64021
	.db #0x02	; 2
	.byte #0x15,#0xfa	; 64021
	.db #0x03	; 3
	.byte #0x04,#0xfb	; 64260
	.db #0x03	; 3
	.byte #0x90,#0xfb	; 64400
	.db #0x02	; 2
	.byte #0x0c,#0xfc	; 64524
	.db #0x02	; 2
	.byte #0x15,#0xfa	; 64021
	.db #0x02	; 2
	.byte #0x15,#0xfa	; 64021
	.db #0x03	; 3
	.byte #0x04,#0xfb	; 64260
	.db #0x03	; 3
	.byte #0x90,#0xfb	; 64400
	.db #0x02	; 2
	.byte #0x0c,#0xfc	; 64524
	.db #0x02	; 2
	.byte #0xb9,#0xfa	; 64185
	.db #0x02	; 2
	.byte #0xb9,#0xfa	; 64185
	.db #0x03	; 3
	.byte #0x5b,#0xf9	; 63835
	.db #0x03	; 3
	.byte #0x18,#0xf8	; 63512
	.db #0x00	; 0
	.byte #0xb8,#0xf9	; 63928
	.db #0x02	; 2
	.byte #0xb9,#0xfa	; 64185
	.db #0x02	; 2
	.byte #0x0c,#0xfc	; 64524
	.db #0x02	; 2
	.byte #0x15,#0xfa	; 64021
	.db #0x03	; 3
	.byte #0x04,#0xfb	; 64260
	.db #0x03	; 3
	.byte #0x90,#0xfb	; 64400
	.db #0x02	; 2
	.byte #0x0c,#0xfc	; 64524
	.db #0x02	; 2
	.byte #0x15,#0xfa	; 64021
	.db #0x02	; 2
	.byte #0x15,#0xfa	; 64021
	.db #0x03	; 3
	.byte #0x04,#0xfb	; 64260
	.db #0x03	; 3
	.byte #0x90,#0xfb	; 64400
	.db #0x02	; 2
	.byte #0x0c,#0xfc	; 64524
	.db #0x02	; 2
	.byte #0x15,#0xfa	; 64021
	.db #0x02	; 2
	.byte #0x15,#0xfa	; 64021
	.db #0x03	; 3
	.byte #0x04,#0xfb	; 64260
	.db #0x03	; 3
	.byte #0x90,#0xfb	; 64400
	.db #0x02	; 2
	.byte #0x0c,#0xfc	; 64524
	.db #0x02	; 2
	.byte #0xac,#0xfc	; 64684
	.db #0x03	; 3
	.byte #0x0c,#0xfc	; 64524
	.db #0x03	; 3
	.byte #0x90,#0xfb	; 64400
	.db #0x03	; 3
	.byte #0x0c,#0xfc	; 64524
	.db #0x03	; 3
	.byte #0x90,#0xfb	; 64400
	.db #0x03	; 3
	.byte #0x0c,#0xfc	; 64524
	.db #0x03	; 3
	.byte #0x90,#0xfb	; 64400
	.db #0x03	; 3
	.byte #0x0c,#0xfc	; 64524
	.db #0x03	; 3
	.byte #0x15,#0xfa	; 64021
	.db #0x02	; 2
	.byte #0x15,#0xfa	; 64021
	.db #0x03	; 3
	.byte #0x04,#0xfb	; 64260
	.db #0x03	; 3
	.byte #0x90,#0xfb	; 64400
	.db #0x02	; 2
	.byte #0x0c,#0xfc	; 64524
	.db #0x02	; 2
	.byte #0x15,#0xfa	; 64021
	.db #0x02	; 2
	.byte #0x15,#0xfa	; 64021
	.db #0x03	; 3
	.byte #0x04,#0xfb	; 64260
	.db #0x03	; 3
	.byte #0x90,#0xfb	; 64400
	.db #0x02	; 2
	.byte #0x0c,#0xfc	; 64524
	.db #0x02	; 2
	.byte #0xb9,#0xfa	; 64185
	.db #0x02	; 2
	.byte #0xb9,#0xfa	; 64185
	.db #0x03	; 3
	.byte #0x5b,#0xf9	; 63835
	.db #0x03	; 3
	.byte #0x18,#0xf8	; 63512
	.db #0x00	; 0
	.byte #0x01,#0x00	; 1
	.db #0x00	; 0
	.byte #0x0c,#0xfc	; 64524
	.db #0x00	; 0
	.byte #0x0c,#0xfc	; 64524
	.db #0x03	; 3
	.byte #0x09,#0xfd	; 64777
	.db #0x03	; 3
	.byte #0x82,#0xfd	; 64898
	.db #0x03	; 3
	.byte #0xc8,#0xfd	; 64968
	.db #0x03	; 3
	.byte #0x82,#0xfd	; 64898
	.db #0x03	; 3
	.byte #0x09,#0xfd	; 64777
	.db #0x03	; 3
	.byte #0xac,#0xfc	; 64684
	.db #0x03	; 3
	.byte #0x09,#0xfd	; 64777
	.db #0x03	; 3
	.byte #0x0c,#0xfc	; 64524
	.db #0x03	; 3
	.byte #0x0c,#0xfc	; 64524
	.db #0x01	; 1
	.byte #0x09,#0xfd	; 64777
	.db #0x03	; 3
	.byte #0x82,#0xfd	; 64898
	.db #0x03	; 3
	.byte #0xc8,#0xfd	; 64968
	.db #0x03	; 3
	.byte #0x22,#0xfe	; 65058
	.db #0x03	; 3
	.byte #0x06,#0xfe	; 65030
	.db #0x03	; 3
	.byte #0xc8,#0xfd	; 64968
	.db #0x03	; 3
	.byte #0x82,#0xfd	; 64898
	.db #0x02	; 2
	.byte #0xc8,#0xfd	; 64968
	.db #0x01	; 1
	.byte #0xc8,#0xfd	; 64968
	.db #0x02	; 2
	.byte #0x09,#0xfd	; 64777
	.db #0x03	; 3
	.byte #0x82,#0xfd	; 64898
	.db #0x03	; 3
	.byte #0xac,#0xfc	; 64684
	.db #0x03	; 3
	.byte #0x09,#0xfd	; 64777
	.db #0x03	; 3
	.byte #0x0c,#0xfc	; 64524
	.db #0x03	; 3
	.byte #0x09,#0xfd	; 64777
	.db #0x03	; 3
	.byte #0x90,#0xfb	; 64400
	.db #0x03	; 3
	.byte #0x0c,#0xfc	; 64524
	.db #0x00	; 0
	.byte #0x0c,#0xfc	; 64524
	.db #0x03	; 3
	.byte #0x09,#0xfd	; 64777
	.db #0x03	; 3
	.byte #0x82,#0xfd	; 64898
	.db #0x03	; 3
	.byte #0xc8,#0xfd	; 64968
	.db #0x03	; 3
	.byte #0x82,#0xfd	; 64898
	.db #0x03	; 3
	.byte #0x09,#0xfd	; 64777
	.db #0x03	; 3
	.byte #0xac,#0xfc	; 64684
	.db #0x02	; 2
	.byte #0x0c,#0xfc	; 64524
	.db #0x00	; 0
	.byte #0x0c,#0xfc	; 64524
	.db #0x03	; 3
	.byte #0x09,#0xfd	; 64777
	.db #0x03	; 3
	.byte #0x82,#0xfd	; 64898
	.db #0x03	; 3
	.byte #0xc8,#0xfd	; 64968
	.db #0x03	; 3
	.byte #0x82,#0xfd	; 64898
	.db #0x03	; 3
	.byte #0x09,#0xfd	; 64777
	.db #0x03	; 3
	.byte #0xac,#0xfc	; 64684
	.db #0x03	; 3
	.byte #0x09,#0xfd	; 64777
	.db #0x03	; 3
	.byte #0x0c,#0xfc	; 64524
	.db #0x00	; 0
	.byte #0x09,#0xfd	; 64777
	.db #0x03	; 3
	.byte #0x82,#0xfd	; 64898
	.db #0x03	; 3
	.byte #0xc8,#0xfd	; 64968
	.db #0x03	; 3
	.byte #0x22,#0xfe	; 65058
	.db #0x03	; 3
	.byte #0x06,#0xfe	; 65030
	.db #0x03	; 3
	.byte #0xc8,#0xfd	; 64968
	.db #0x03	; 3
	.byte #0x82,#0xfd	; 64898
	.db #0x02	; 2
	.byte #0xc8,#0xfd	; 64968
	.db #0x03	; 3
	.byte #0xc8,#0xfd	; 64968
	.db #0x82	; 130
	.byte #0xc8,#0xfd	; 64968
	.db #0x02	; 2
	.byte #0x09,#0xfd	; 64777
	.db #0x03	; 3
	.byte #0x82,#0xfd	; 64898
	.db #0x03	; 3
	.byte #0xac,#0xfc	; 64684
	.db #0x03	; 3
	.byte #0x09,#0xfd	; 64777
	.db #0x03	; 3
	.byte #0x0c,#0xfc	; 64524
	.db #0x03	; 3
	.byte #0x09,#0xfd	; 64777
	.db #0x03	; 3
	.byte #0x90,#0xfb	; 64400
	.db #0x03	; 3
	.byte #0x0c,#0xfc	; 64524
	.db #0x83	; 131
	.byte #0xc8,#0xfd	; 64968
	.db #0x03	; 3
	.byte #0x06,#0xfe	; 65030
	.db #0x04	; 4
	.byte #0x22,#0xfe	; 65058
	.db #0x04	; 4
	.byte #0x85,#0xfe	; 65157
	.db #0x04	; 4
	.byte #0x22,#0xfe	; 65058
	.db #0x04	; 4
	.byte #0x06,#0xfe	; 65030
	.db #0x03	; 3
	.byte #0x09,#0xfd	; 64777
	.db #0x02	; 2
	.byte #0x82,#0xfd	; 64898
	.db #0x03	; 3
	.byte #0xc8,#0xfd	; 64968
	.db #0x03	; 3
	.byte #0x22,#0xfe	; 65058
	.db #0x03	; 3
	.byte #0x06,#0xfe	; 65030
	.db #0x03	; 3
	.byte #0xc8,#0xfd	; 64968
	.db #0x03	; 3
	.byte #0x82,#0xfd	; 64898
	.db #0x02	; 2
	.byte #0xc8,#0xfd	; 64968
	.db #0x82	; 130
	.byte #0x09,#0xfd	; 64777
	.db #0x03	; 3
	.byte #0x82,#0xfd	; 64898
	.db #0x03	; 3
	.byte #0xc8,#0xfd	; 64968
	.db #0x02	; 2
	.byte #0x06,#0xfe	; 65030
	.db #0x02	; 2
	.byte #0x09,#0xfd	; 64777
	.db #0x02	; 2
	.byte #0x09,#0xfd	; 64777
	.db #0x03	; 3
	.byte #0x82,#0xfd	; 64898
	.db #0x03	; 3
	.byte #0xc8,#0xfd	; 64968
	.db #0x02	; 2
	.byte #0x06,#0xfe	; 65030
	.db #0x02	; 2
	.byte #0x56,#0xfe	; 65110
	.db #0x03	; 3
	.byte #0x06,#0xfe	; 65030
	.db #0x03	; 3
	.byte #0xc8,#0xfd	; 64968
	.db #0x03	; 3
	.byte #0x06,#0xfe	; 65030
	.db #0x03	; 3
	.byte #0x85,#0xfe	; 65157
	.db #0x00	; 0
	.byte #0x01,#0x00	; 1
	.db #0x00	; 0
	.byte #0x15,#0xfa	; 64021
	.db #0x03	; 3
	.byte #0x0c,#0xfc	; 64524
	.db #0x04	; 4
	.byte #0x90,#0xfb	; 64400
	.db #0x04	; 4
	.byte #0x0c,#0xfc	; 64524
	.db #0x03	; 3
	.byte #0xac,#0xfc	; 64684
	.db #0x03	; 3
	.byte #0x09,#0xfd	; 64777
	.db #0x01	; 1
	.byte #0x15,#0xfa	; 64021
	.db #0x03	; 3
	.byte #0x0c,#0xfc	; 64524
	.db #0x04	; 4
	.byte #0x90,#0xfb	; 64400
	.db #0x04	; 4
	.byte #0x0c,#0xfc	; 64524
	.db #0x03	; 3
	.byte #0xac,#0xfc	; 64684
	.db #0x03	; 3
	.byte #0x09,#0xfd	; 64777
	.db #0x01	; 1
	.byte #0x15,#0xfa	; 64021
	.db #0x03	; 3
	.byte #0x0c,#0xfc	; 64524
	.db #0x04	; 4
	.byte #0x90,#0xfb	; 64400
	.db #0x04	; 4
	.byte #0x0c,#0xfc	; 64524
	.db #0x03	; 3
	.byte #0xac,#0xfc	; 64684
	.db #0x03	; 3
	.byte #0x09,#0xfd	; 64777
	.db #0x02	; 2
	.byte #0x0c,#0xfc	; 64524
	.db #0x03	; 3
	.byte #0x5c,#0xfd	; 64860
	.db #0x03	; 3
	.byte #0x82,#0xfd	; 64898
	.db #0x03	; 3
	.byte #0x0c,#0xfc	; 64524
	.db #0x03	; 3
	.byte #0x5c,#0xfd	; 64860
	.db #0x03	; 3
	.byte #0x90,#0xfb	; 64400
	.db #0x03	; 3
	.byte #0x09,#0xfd	; 64777
	.db #0x01	; 1
	.byte #0x15,#0xfa	; 64021
	.db #0x03	; 3
	.byte #0x0c,#0xfc	; 64524
	.db #0x04	; 4
	.byte #0x90,#0xfb	; 64400
	.db #0x04	; 4
	.byte #0x0c,#0xfc	; 64524
	.db #0x03	; 3
	.byte #0xac,#0xfc	; 64684
	.db #0x03	; 3
	.byte #0x09,#0xfd	; 64777
	.db #0x01	; 1
	.byte #0x15,#0xfa	; 64021
	.db #0x03	; 3
	.byte #0x0c,#0xfc	; 64524
	.db #0x04	; 4
	.byte #0x90,#0xfb	; 64400
	.db #0x04	; 4
	.byte #0x0c,#0xfc	; 64524
	.db #0x03	; 3
	.byte #0xac,#0xfc	; 64684
	.db #0x03	; 3
	.byte #0x09,#0xfd	; 64777
	.db #0x00	; 0
	.byte #0x2a,#0xf4	; 62506
	.db #0x00	; 0
	.byte #0x09,#0xf6	; 62985
	.db #0x00	; 0
	.byte #0x18,#0xf8	; 63512
	.db #0x00	; 0
	.byte #0x15,#0xfa	; 64021
	.db #0x00	; 0
	.byte #0xc8,#0xfd	; 64968
	.db #0x00	; 0
	.byte #0x06,#0xfe	; 65030
	.db #0x00	; 0
	.byte #0x56,#0xfe	; 65110
	.db #0x00	; 0
	.byte #0x85,#0xfe	; 65157
	.db #0x00	; 0
	.byte #0x00,#0x00	; 0
	.db #0x01	; 1
	.area XINIT   (CODE)
	.area CABS    (ABS,CODE)
